; Function Attrs: mustprogress nounwind uwtable
define hidden void @_ZN11OpenImageIO6v3_1_09TIFFInput18separate_to_contigEiiPKhPh(ptr noundef nonnull align 8 dereferenceable(384) %0, i32 noundef %1, i32 noundef %2, ptr noundef readonly captures(none) %3, ptr noundef writeonly captures(none) %4) local_unnamed_addr #6 align 2 {
  %6 = getelementptr inbounds nuw i8, ptr %0, i64 72
  %7 = getelementptr inbounds nuw i8, ptr %0, i64 76
  %8 = load i32, ptr %7, align 4, !tbaa !101
  %narrow.i.i = tail call i32 @llvm.smax.i32(i32 %8, i32 1)
  %9 = getelementptr inbounds nuw i8, ptr %0, i64 73
  %10 = load i8, ptr %9, align 1, !tbaa !181
  %11 = zext i8 %10 to i64
  %12 = tail call noundef i64 @_ZNK11OpenImageIO6v3_1_08TypeDesc8basesizeEv(ptr noundef nonnull align 4 dereferenceable(8) %6) #7
  %13 = mul i64 %12, %11
  %14 = trunc i64 %13 to i32
  %15 = mul i32 %narrow.i.i, %14
  %16 = icmp sgt i32 %2, 0
  %17 = icmp sgt i32 %1, 0
  %or.cond = and i1 %16, %17
  %18 = icmp sgt i32 %15, 0
  %or.cond52 = select i1 %or.cond, i1 %18, i1 false
  br i1 %or.cond52, label %.preheader26.us.us.preheader, label %._crit_edge

.preheader26.us.us.preheader:                     ; preds = %5
  %19 = zext nneg i32 %2 to i64
  %20 = zext nneg i32 %15 to i64
  %21 = zext nneg i32 %1 to i64
  br label %.preheader26.us.us

.preheader26.us.us:                               ; preds = %.preheader26.us.us.preheader, %._crit_edge29.split.us.us.us
  %indvars.iv45 = phi i64 [ 0, %.preheader26.us.us.preheader ], [ %indvars.iv.next46, %._crit_edge29.split.us.us.us ]
  %22 = mul nuw nsw i64 %indvars.iv45, %21
  br label %.preheader.us.us.us

.preheader.us.us.us:                              ; preds = %._crit_edge.us.us.us, %.preheader26.us.us
  %indvars.iv40 = phi i64 [ %indvars.iv.next41, %._crit_edge.us.us.us ], [ 0, %.preheader26.us.us ]
  %23 = mul nuw nsw i64 %indvars.iv40, %19
  %24 = add nuw nsw i64 %23, %indvars.iv45
  %25 = mul nuw nsw i64 %24, %20
  %26 = add nuw nsw i64 %indvars.iv40, %22
  %27 = mul nuw nsw i64 %26, %20
  %invariant.gep = getelementptr inbounds nuw i8, ptr %3, i64 %25
  %invariant.gep50 = getelementptr inbounds nuw i8, ptr %4, i64 %27
  br label %28

28:                                               ; preds = %28, %.preheader.us.us.us
  %indvars.iv = phi i64 [ %indvars.iv.next, %28 ], [ 0, %.preheader.us.us.us ]
  %gep = getelementptr inbounds nuw i8, ptr %invariant.gep, i64 %indvars.iv
  %29 = load i8, ptr %gep, align 1, !tbaa !13
  %gep51 = getelementptr inbounds nuw i8, ptr %invariant.gep50, i64 %indvars.iv
  store i8 %29, ptr %gep51, align 1, !tbaa !13
  %indvars.iv.next = add nuw nsw i64 %indvars.iv, 1
  %exitcond.not = icmp eq i64 %indvars.iv.next, %20
  br i1 %exitcond.not, label %._crit_edge.us.us.us, label %28, !llvm.loop !221

._crit_edge.us.us.us:                             ; preds = %28
  %indvars.iv.next41 = add nuw nsw i64 %indvars.iv40, 1
  %exitcond44.not = icmp eq i64 %indvars.iv.next41, %21
  br i1 %exitcond44.not, label %._crit_edge29.split.us.us.us, label %.preheader.us.us.us, !llvm.loop !222

._crit_edge29.split.us.us.us:                     ; preds = %._crit_edge.us.us.us
  %indvars.iv.next46 = add nuw nsw i64 %indvars.iv45, 1
  %exitcond49.not = icmp eq i64 %indvars.iv.next46, %19
  br i1 %exitcond49.not, label %._crit_edge, label %.preheader26.us.us, !llvm.loop !223

._crit_edge:                                      ; preds = %._crit_edge29.split.us.us.us, %5
  ret void
}